; ModuleID = '2/886.c'
source_filename = "2/886.c"
target datalayout = "e-m:e-p270:32:32-p271:32:32-p272:64:64-i64:64-f80:128-n8:16:32:64-S128"
target triple = "x86_64-pc-linux-gnu"

%struct.x = type { i32, [26 x i8], i32 }

@.str = private unnamed_addr constant [3 x i8] c"%d\00", align 1
@.str.1 = private unnamed_addr constant [6 x i8] c"%d %s\00", align 1
@.str.2 = private unnamed_addr constant [4 x i8] c"%c\0A\00", align 1
@.str.3 = private unnamed_addr constant [4 x i8] c"%d\0A\00", align 1

; Function Attrs: noinline nounwind uwtable
define dso_local void @main() #0 {
  %1 = alloca [999 x %struct.x], align 16
  %2 = alloca i32, align 4
  %3 = alloca i32, align 4
  %4 = alloca i32, align 4
  %5 = alloca i32, align 4
  %6 = alloca i32, align 4
  %7 = alloca i32, align 4
  %8 = alloca [91 x i32], align 16
  store i32 0, i32* %5, align 4
  store i32 0, i32* %6, align 4
  %9 = bitcast [91 x i32]* %8 to i8*
  call void @llvm.memset.p0i8.i64(i8* align 16 %9, i8 0, i64 364, i1 false)
  %10 = call i32 (i8*, ...) @__isoc99_scanf(i8* getelementptr inbounds ([3 x i8], [3 x i8]* @.str, i64 0, i64 0), i32* %4)
  store i32 0, i32* %2, align 4
  br label %11

11:                                               ; preds = %37, %0
  %12 = load i32, i32* %2, align 4
  %13 = load i32, i32* %4, align 4
  %14 = icmp slt i32 %12, %13
  br i1 %14, label %15, label %40

15:                                               ; preds = %11
  %16 = load i32, i32* %2, align 4
  %17 = sext i32 %16 to i64
  %18 = getelementptr inbounds [999 x %struct.x], [999 x %struct.x]* %1, i64 0, i64 %17
  %19 = getelementptr inbounds %struct.x, %struct.x* %18, i32 0, i32 0
  %20 = load i32, i32* %2, align 4
  %21 = sext i32 %20 to i64
  %22 = getelementptr inbounds [999 x %struct.x], [999 x %struct.x]* %1, i64 0, i64 %21
  %23 = getelementptr inbounds %struct.x, %struct.x* %22, i32 0, i32 1
  %24 = getelementptr inbounds [26 x i8], [26 x i8]* %23, i64 0, i64 0
  %25 = call i32 (i8*, ...) @__isoc99_scanf(i8* getelementptr inbounds ([6 x i8], [6 x i8]* @.str.1, i64 0, i64 0), i32* %19, i8* %24)
  %26 = load i32, i32* %2, align 4
  %27 = sext i32 %26 to i64
  %28 = getelementptr inbounds [999 x %struct.x], [999 x %struct.x]* %1, i64 0, i64 %27
  %29 = getelementptr inbounds %struct.x, %struct.x* %28, i32 0, i32 1
  %30 = getelementptr inbounds [26 x i8], [26 x i8]* %29, i64 0, i64 0
  %31 = call i64 @strlen(i8* %30) #4
  %32 = trunc i64 %31 to i32
  %33 = load i32, i32* %2, align 4
  %34 = sext i32 %33 to i64
  %35 = getelementptr inbounds [999 x %struct.x], [999 x %struct.x]* %1, i64 0, i64 %34
  %36 = getelementptr inbounds %struct.x, %struct.x* %35, i32 0, i32 2
  store i32 %32, i32* %36, align 4
  br label %37

37:                                               ; preds = %15
  %38 = load i32, i32* %2, align 4
  %39 = add nsw i32 %38, 1
  store i32 %39, i32* %2, align 4
  br label %11

40:                                               ; preds = %11
  store i32 0, i32* %2, align 4
  br label %41

41:                                               ; preds = %84, %40
  %42 = load i32, i32* %2, align 4
  %43 = load i32, i32* %4, align 4
  %44 = icmp slt i32 %42, %43
  br i1 %44, label %45, label %87

45:                                               ; preds = %41
  store i32 0, i32* %3, align 4
  br label %46

46:                                               ; preds = %80, %45
  %47 = load i32, i32* %3, align 4
  %48 = load i32, i32* %2, align 4
  %49 = sext i32 %48 to i64
  %50 = getelementptr inbounds [999 x %struct.x], [999 x %struct.x]* %1, i64 0, i64 %49
  %51 = getelementptr inbounds %struct.x, %struct.x* %50, i32 0, i32 2
  %52 = load i32, i32* %51, align 4
  %53 = icmp slt i32 %47, %52
  br i1 %53, label %54, label %83

54:                                               ; preds = %46
  store i32 65, i32* %7, align 4
  br label %55

55:                                               ; preds = %76, %54
  %56 = load i32, i32* %7, align 4
  %57 = icmp slt i32 %56, 90
  br i1 %57, label %58, label %79

58:                                               ; preds = %55
  %59 = load i32, i32* %2, align 4
  %60 = sext i32 %59 to i64
  %61 = getelementptr inbounds [999 x %struct.x], [999 x %struct.x]* %1, i64 0, i64 %60
  %62 = getelementptr inbounds %struct.x, %struct.x* %61, i32 0, i32 1
  %63 = load i32, i32* %3, align 4
  %64 = sext i32 %63 to i64
  %65 = getelementptr inbounds [26 x i8], [26 x i8]* %62, i64 0, i64 %64
  %66 = load i8, i8* %65, align 1
  %67 = sext i8 %66 to i32
  store i32 %67, i32* %7, align 4
  %68 = icmp ne i32 %67, 0
  br i1 %68, label %69, label %75

69:                                               ; preds = %58
  %70 = load i32, i32* %7, align 4
  %71 = sext i32 %70 to i64
  %72 = getelementptr inbounds [91 x i32], [91 x i32]* %8, i64 0, i64 %71
  %73 = load i32, i32* %72, align 4
  %74 = add nsw i32 %73, 1
  store i32 %74, i32* %72, align 4
  br label %79

75:                                               ; preds = %58
  br label %76

76:                                               ; preds = %75
  %77 = load i32, i32* %7, align 4
  %78 = add nsw i32 %77, 1
  store i32 %78, i32* %7, align 4
  br label %55

79:                                               ; preds = %69, %55
  br label %80

80:                                               ; preds = %79
  %81 = load i32, i32* %3, align 4
  %82 = add nsw i32 %81, 1
  store i32 %82, i32* %3, align 4
  br label %46

83:                                               ; preds = %46
  br label %84

84:                                               ; preds = %83
  %85 = load i32, i32* %2, align 4
  %86 = add nsw i32 %85, 1
  store i32 %86, i32* %2, align 4
  br label %41

87:                                               ; preds = %41
  store i32 65, i32* %2, align 4
  br label %88

88:                                               ; preds = %105, %87
  %89 = load i32, i32* %2, align 4
  %90 = icmp slt i32 %89, 90
  br i1 %90, label %91, label %108

91:                                               ; preds = %88
  %92 = load i32, i32* %5, align 4
  %93 = load i32, i32* %2, align 4
  %94 = sext i32 %93 to i64
  %95 = getelementptr inbounds [91 x i32], [91 x i32]* %8, i64 0, i64 %94
  %96 = load i32, i32* %95, align 4
  %97 = icmp slt i32 %92, %96
  br i1 %97, label %98, label %104

98:                                               ; preds = %91
  %99 = load i32, i32* %2, align 4
  %100 = sext i32 %99 to i64
  %101 = getelementptr inbounds [91 x i32], [91 x i32]* %8, i64 0, i64 %100
  %102 = load i32, i32* %101, align 4
  store i32 %102, i32* %5, align 4
  %103 = load i32, i32* %2, align 4
  store i32 %103, i32* %6, align 4
  br label %104

104:                                              ; preds = %98, %91
  br label %105

105:                                              ; preds = %104
  %106 = load i32, i32* %2, align 4
  %107 = add nsw i32 %106, 1
  store i32 %107, i32* %2, align 4
  br label %88

108:                                              ; preds = %88
  %109 = load i32, i32* %6, align 4
  %110 = call i32 (i8*, ...) @printf(i8* getelementptr inbounds ([4 x i8], [4 x i8]* @.str.2, i64 0, i64 0), i32 %109)
  %111 = load i32, i32* %5, align 4
  %112 = call i32 (i8*, ...) @printf(i8* getelementptr inbounds ([4 x i8], [4 x i8]* @.str.3, i64 0, i64 0), i32 %111)
  store i32 0, i32* %2, align 4
  br label %113

113:                                              ; preds = %150, %108
  %114 = load i32, i32* %2, align 4
  %115 = load i32, i32* %4, align 4
  %116 = icmp slt i32 %114, %115
  br i1 %116, label %117, label %153

117:                                              ; preds = %113
  store i32 0, i32* %3, align 4
  br label %118

118:                                              ; preds = %146, %117
  %119 = load i32, i32* %3, align 4
  %120 = load i32, i32* %2, align 4
  %121 = sext i32 %120 to i64
  %122 = getelementptr inbounds [999 x %struct.x], [999 x %struct.x]* %1, i64 0, i64 %121
  %123 = getelementptr inbounds %struct.x, %struct.x* %122, i32 0, i32 2
  %124 = load i32, i32* %123, align 4
  %125 = icmp slt i32 %119, %124
  br i1 %125, label %126, label %149

126:                                              ; preds = %118
  %127 = load i32, i32* %2, align 4
  %128 = sext i32 %127 to i64
  %129 = getelementptr inbounds [999 x %struct.x], [999 x %struct.x]* %1, i64 0, i64 %128
  %130 = getelementptr inbounds %struct.x, %struct.x* %129, i32 0, i32 1
  %131 = load i32, i32* %3, align 4
  %132 = sext i32 %131 to i64
  %133 = getelementptr inbounds [26 x i8], [26 x i8]* %130, i64 0, i64 %132
  %134 = load i8, i8* %133, align 1
  %135 = sext i8 %134 to i32
  %136 = load i32, i32* %6, align 4
  %137 = icmp eq i32 %135, %136
  br i1 %137, label %138, label %145

138:                                              ; preds = %126
  %139 = load i32, i32* %2, align 4
  %140 = sext i32 %139 to i64
  %141 = getelementptr inbounds [999 x %struct.x], [999 x %struct.x]* %1, i64 0, i64 %140
  %142 = getelementptr inbounds %struct.x, %struct.x* %141, i32 0, i32 0
  %143 = load i32, i32* %142, align 4
  %144 = call i32 (i8*, ...) @printf(i8* getelementptr inbounds ([4 x i8], [4 x i8]* @.str.3, i64 0, i64 0), i32 %143)
  br label %145

145:                                              ; preds = %138, %126
  br label %146

146:                                              ; preds = %145
  %147 = load i32, i32* %3, align 4
  %148 = add nsw i32 %147, 1
  store i32 %148, i32* %3, align 4
  br label %118

149:                                              ; preds = %118
  br label %150

150:                                              ; preds = %149
  %151 = load i32, i32* %2, align 4
  %152 = add nsw i32 %151, 1
  store i32 %152, i32* %2, align 4
  br label %113

153:                                              ; preds = %113
  ret void
}

; Function Attrs: argmemonly nounwind willreturn
declare void @llvm.memset.p0i8.i64(i8* nocapture writeonly, i8, i64, i1 immarg) #1

declare dso_local i32 @__isoc99_scanf(i8*, ...) #2

; Function Attrs: nounwind readonly
declare dso_local i64 @strlen(i8*) #3

declare dso_local i32 @printf(i8*, ...) #2


!llvm.module.flags = !{!0}
!llvm.ident = !{!1}

!0 = !{i32 1, !"wchar_size", i32 4}
!1 = !{!"clang version 10.0.0-4ubuntu1 "}
